; Function Attrs: mustprogress nounwind uwtable
define dso_local void @_ZNK4llvm6object22BigArchiveMemberHeader13getNextOffsetEv(ptr dead_on_unwind noalias writable sret(%"class.llvm::Expected.7") align 8 captures(none) initializes((0, 8)) %0, ptr noundef nonnull align 8 dereferenceable(24) %1) local_unnamed_addr #1 align 2 {
  %3 = alloca %"class.llvm::StringRef", align 8
  %4 = alloca %"class.llvm::Twine", align 8
  %5 = getelementptr inbounds nuw i8, ptr %4, i64 32
  %6 = getelementptr inbounds nuw i8, ptr %4, i64 33
  store i8 1, ptr %6, align 1
  store ptr @.str.27, ptr %4, align 8
  store i8 3, ptr %5, align 8
  %7 = getelementptr inbounds nuw i8, ptr %1, i64 16
  %8 = load ptr, ptr %7, align 8
  %9 = getelementptr inbounds nuw i8, ptr %8, i64 20
  call void @llvm.lifetime.start.p0(i64 16, ptr nonnull %3)
  store ptr %9, ptr %3, align 8
  %10 = getelementptr inbounds nuw i8, ptr %3, i64 8
  store i64 20, ptr %10, align 8
  %11 = call noundef i64 @_ZNK4llvm9StringRef16find_last_not_ofES0_m(ptr noundef nonnull align 8 dereferenceable(16) %3, ptr nonnull @.str.70, i64 1, i64 noundef -1) #23
  %12 = add i64 %11, 1
  %13 = load i64, ptr %10, align 8
  %.sroa.speculated.i.i = call i64 @llvm.umin.i64(i64 %12, i64 %13)
  %.neg.i.i = add i64 %13, -20
  %14 = add i64 %.neg.i.i, %.sroa.speculated.i.i
  %15 = load ptr, ptr %3, align 8
  %.sroa.speculated.i.i.i.i = call i64 @llvm.umin.i64(i64 %13, i64 %14)
  call void @llvm.lifetime.end.p0(i64 16, ptr nonnull %3)
  call void @_Z24getArchiveMemberDecFieldN4llvm5TwineENS_9StringRefEPKNS_6object7ArchiveEPKNS2_27AbstractArchiveMemberHeaderE(ptr dead_on_unwind writable sret(%"class.llvm::Expected.7") align 8 %0, ptr noundef nonnull byval(%"class.llvm::Twine") align 8 %4, ptr %15, i64 %.sroa.speculated.i.i.i.i, ptr poison, ptr noundef nonnull %1)
  ret void
}